; Function Attrs: mustprogress uwtable
define void @_ZN6GLArea14mouseMoveEventEP11QMouseEvent(ptr noundef nonnull align 8 dereferenceable(1676) %0, ptr noundef %1) unnamed_addr #9 align 2 {
  tail call void @_ZN9QGLWidget11makeCurrentEv(ptr noundef nonnull align 8 dereferenceable(48) %0)
  %3 = getelementptr inbounds i8, ptr %0, i64 1456
  %4 = load ptr, ptr %3, align 8
  %.not = icmp eq ptr %4, null
  br i1 %.not, label %16, label %5

5:                                                ; preds = %2
  %6 = getelementptr inbounds i8, ptr %0, i64 1353
  %7 = load i8, ptr %6, align 1
  %8 = and i8 %7, 1
  %.not6 = icmp eq i8 %8, 0
  br i1 %.not6, label %_ZN6GLArea2mmEv.exit, label %16

_ZN6GLArea2mmEv.exit:                             ; preds = %5
  %9 = getelementptr inbounds i8, ptr %0, i64 56
  %10 = load ptr, ptr %9, align 8, !nonnull !15, !noundef !15
  %11 = getelementptr inbounds i8, ptr %10, i64 48
  %12 = tail call noundef ptr @_ZN12MeshDocument2mmEv(ptr noundef nonnull align 8 dereferenceable(192) %11)
  %13 = load ptr, ptr %4, align 8
  %14 = getelementptr inbounds i8, ptr %13, i64 96
  %15 = load ptr, ptr %14, align 8
  tail call void %15(ptr noundef nonnull align 8 dereferenceable(16) %4, ptr noundef %1, ptr noundef nonnull align 8 dereferenceable(1288) %12, ptr noundef nonnull %0)
  br label %129

16:                                               ; preds = %5, %2
  %17 = getelementptr inbounds i8, ptr %0, i64 1378
  %18 = load i8, ptr %17, align 2
  %19 = and i8 %18, 1
  %.not10 = icmp eq i8 %19, 0
  %20 = getelementptr inbounds i8, ptr %1, i64 32
  %21 = load double, ptr %20, align 8
  %22 = fcmp ult double %21, 0.000000e+00
  br i1 %.not10, label %77, label %23

23:                                               ; preds = %16
  %24 = getelementptr inbounds i8, ptr %0, i64 64
  br i1 %22, label %28, label %25

25:                                               ; preds = %23
  %26 = fadd double %21, 5.000000e-01
  %27 = fptosi double %26 to i32
  br label %_Z8QT2VCG_XP7QWidgetP11QMouseEvent.exit

28:                                               ; preds = %23
  %29 = fadd double %21, -1.000000e+00
  %30 = fptosi double %29 to i32
  %31 = sitofp i32 %30 to double
  %32 = fsub double %21, %31
  %33 = fadd double %32, 5.000000e-01
  %34 = fptosi double %33 to i32
  %35 = add nsw i32 %34, %30
  br label %_Z8QT2VCG_XP7QWidgetP11QMouseEvent.exit

_Z8QT2VCG_XP7QWidgetP11QMouseEvent.exit:          ; preds = %25, %28
  %36 = phi i32 [ %27, %25 ], [ %35, %28 ]
  %37 = getelementptr inbounds i8, ptr %0, i64 16
  %38 = load ptr, ptr %37, align 8
  %39 = getelementptr inbounds i8, ptr %38, i64 32
  %40 = load ptr, ptr %39, align 8
  %41 = tail call noundef i32 %40(ptr noundef nonnull align 8 dereferenceable(24) %37, i32 noundef 11)
  %42 = mul nsw i32 %41, %36
  %43 = sitofp i32 %42 to float
  %44 = fptosi float %43 to i32
  %45 = getelementptr inbounds i8, ptr %0, i64 40
  %46 = load ptr, ptr %45, align 8
  %47 = getelementptr inbounds i8, ptr %46, i64 32
  %48 = load i32, ptr %47, align 4
  %49 = getelementptr inbounds i8, ptr %46, i64 24
  %50 = load i32, ptr %49, align 4
  %51 = getelementptr inbounds i8, ptr %1, i64 40
  %52 = load double, ptr %51, align 8
  %53 = fcmp ult double %52, 0.000000e+00
  br i1 %53, label %57, label %54

54:                                               ; preds = %_Z8QT2VCG_XP7QWidgetP11QMouseEvent.exit
  %55 = fadd double %52, 5.000000e-01
  %56 = fptosi double %55 to i32
  br label %_Z8QT2VCG_YP7QWidgetP11QMouseEvent.exit

57:                                               ; preds = %_Z8QT2VCG_XP7QWidgetP11QMouseEvent.exit
  %58 = fadd double %52, -1.000000e+00
  %59 = fptosi double %58 to i32
  %60 = sitofp i32 %59 to double
  %61 = fsub double %52, %60
  %62 = fadd double %61, 5.000000e-01
  %63 = fptosi double %62 to i32
  %64 = add nsw i32 %63, %59
  br label %_Z8QT2VCG_YP7QWidgetP11QMouseEvent.exit

_Z8QT2VCG_YP7QWidgetP11QMouseEvent.exit:          ; preds = %54, %57
  %65 = phi i32 [ %56, %54 ], [ %64, %57 ]
  %.neg12 = add i32 %48, 1
  %66 = add i32 %50, %65
  %67 = sub i32 %.neg12, %66
  %68 = load ptr, ptr %37, align 8
  %69 = getelementptr inbounds i8, ptr %68, i64 32
  %70 = load ptr, ptr %69, align 8
  %71 = tail call noundef i32 %70(ptr noundef nonnull align 8 dereferenceable(24) %37, i32 noundef 11)
  %72 = mul nsw i32 %71, %67
  %73 = sitofp i32 %72 to float
  %74 = fptosi float %73 to i32
  tail call void @_ZN3vcg9Trackball9MouseMoveEii(ptr noundef nonnull align 8 dereferenceable(597) %24, i32 noundef %44, i32 noundef %74)
  %75 = getelementptr inbounds i8, ptr %0, i64 392
  %76 = load ptr, ptr %75, align 8
  tail call void @_ZN6GLArea14setCursorTrackEPN3vcg9TrackModeE(ptr noundef nonnull align 8 dereferenceable(1676) %0, ptr noundef %76)
  br label %129

77:                                               ; preds = %16
  %78 = getelementptr inbounds i8, ptr %0, i64 664
  br i1 %22, label %82, label %79

79:                                               ; preds = %77
  %80 = fadd double %21, 5.000000e-01
  %81 = fptosi double %80 to i32
  br label %_Z8QT2VCG_XP7QWidgetP11QMouseEvent.exit7

82:                                               ; preds = %77
  %83 = fadd double %21, -1.000000e+00
  %84 = fptosi double %83 to i32
  %85 = sitofp i32 %84 to double
  %86 = fsub double %21, %85
  %87 = fadd double %86, 5.000000e-01
  %88 = fptosi double %87 to i32
  %89 = add nsw i32 %88, %84
  br label %_Z8QT2VCG_XP7QWidgetP11QMouseEvent.exit7

_Z8QT2VCG_XP7QWidgetP11QMouseEvent.exit7:         ; preds = %79, %82
  %90 = phi i32 [ %81, %79 ], [ %89, %82 ]
  %91 = getelementptr inbounds i8, ptr %0, i64 16
  %92 = load ptr, ptr %91, align 8
  %93 = getelementptr inbounds i8, ptr %92, i64 32
  %94 = load ptr, ptr %93, align 8
  %95 = tail call noundef i32 %94(ptr noundef nonnull align 8 dereferenceable(24) %91, i32 noundef 11)
  %96 = mul nsw i32 %95, %90
  %97 = sitofp i32 %96 to float
  %98 = fptosi float %97 to i32
  %99 = getelementptr inbounds i8, ptr %0, i64 40
  %100 = load ptr, ptr %99, align 8
  %101 = getelementptr inbounds i8, ptr %100, i64 32
  %102 = load i32, ptr %101, align 4
  %103 = getelementptr inbounds i8, ptr %100, i64 24
  %104 = load i32, ptr %103, align 4
  %105 = getelementptr inbounds i8, ptr %1, i64 40
  %106 = load double, ptr %105, align 8
  %107 = fcmp ult double %106, 0.000000e+00
  br i1 %107, label %111, label %108

108:                                              ; preds = %_Z8QT2VCG_XP7QWidgetP11QMouseEvent.exit7
  %109 = fadd double %106, 5.000000e-01
  %110 = fptosi double %109 to i32
  br label %_Z8QT2VCG_YP7QWidgetP11QMouseEvent.exit9

111:                                              ; preds = %_Z8QT2VCG_XP7QWidgetP11QMouseEvent.exit7
  %112 = fadd double %106, -1.000000e+00
  %113 = fptosi double %112 to i32
  %114 = sitofp i32 %113 to double
  %115 = fsub double %106, %114
  %116 = fadd double %115, 5.000000e-01
  %117 = fptosi double %116 to i32
  %118 = add nsw i32 %117, %113
  br label %_Z8QT2VCG_YP7QWidgetP11QMouseEvent.exit9

_Z8QT2VCG_YP7QWidgetP11QMouseEvent.exit9:         ; preds = %108, %111
  %119 = phi i32 [ %110, %108 ], [ %118, %111 ]
  %.neg15 = add i32 %102, 1
  %120 = add i32 %104, %119
  %121 = sub i32 %.neg15, %120
  %122 = load ptr, ptr %91, align 8
  %123 = getelementptr inbounds i8, ptr %122, i64 32
  %124 = load ptr, ptr %123, align 8
  %125 = tail call noundef i32 %124(ptr noundef nonnull align 8 dereferenceable(24) %91, i32 noundef 11)
  %126 = mul nsw i32 %125, %121
  %127 = sitofp i32 %126 to float
  %128 = fptosi float %127 to i32
  tail call void @_ZN3vcg9Trackball9MouseMoveEii(ptr noundef nonnull align 8 dereferenceable(597) %78, i32 noundef %98, i32 noundef %128)
  br label %129

129:                                              ; preds = %_Z8QT2VCG_YP7QWidgetP11QMouseEvent.exit, %_Z8QT2VCG_YP7QWidgetP11QMouseEvent.exit9, %_ZN6GLArea2mmEv.exit
  tail call void @_ZN7QWidget6updateEv(ptr noundef nonnull align 8 dereferenceable(48) %0)
  ret void
}